
a.out:     file format elf32-littleriscv


Disassembly of section .all:

80000000 <_boot>:
80000000:	00000297          	auipc	x5,0x0
80000004:	42428293          	addi	x5,x5,1060 # 80000424 <__trap_handler>
80000008:	30529073          	csrrw	x0,mtvec,x5
8000000c:	00020117          	auipc	x2,0x20
80000010:	ff010113          	addi	x2,x2,-16 # 8001fffc <_stack_top>
80000014:	4c8000ef          	jal	x1,800004dc <main>

80000018 <_boot_end>:
80000018:	10500073          	wfi
8000001c:	ffdff06f          	jal	x0,80000018 <_boot_end>

80000020 <adc_isr_floating_point>:
80000020:	a00007b7          	lui	x15,0xa0000
80000024:	0007a783          	lw	x15,0(x15) # a0000000 <_stack_top+0x1ffe0004>
80000028:	800006b7          	lui	x13,0x80000
8000002c:	4c86a607          	flw	f12,1224(x13) # 800004c8 <_stack_top+0xfffe04cc>
80000030:	d017f7d3          	fcvt.s.wu	f15,x15
80000034:	800007b7          	lui	x15,0x80000
80000038:	6707a707          	flw	f14,1648(x15) # 80000670 <_stack_top+0xfffe0674>
8000003c:	800007b7          	lui	x15,0x80000
80000040:	6747a687          	flw	f13,1652(x15) # 80000674 <_stack_top+0xfffe0678>
80000044:	10e7f7d3          	fmul.s	f15,f15,f14
80000048:	800007b7          	lui	x15,0x80000
8000004c:	6787a707          	flw	f14,1656(x15) # 80000678 <_stack_top+0xfffe067c>
80000050:	800007b7          	lui	x15,0x80000
80000054:	80000737          	lui	x14,0x80000
80000058:	70d7f7c3          	fmadd.s	f15,f15,f13,f14
8000005c:	67c7a687          	flw	f13,1660(x15) # 8000067c <_stack_top+0xfffe0680>
80000060:	800007b7          	lui	x15,0x80000
80000064:	80000637          	lui	x12,0x80000
80000068:	4c072587          	flw	f11,1216(x14) # 800004c0 <_stack_top+0xfffe04c4>
8000006c:	08f6f6d3          	fsub.s	f13,f13,f15
80000070:	6807a787          	flw	f15,1664(x15) # 80000680 <_stack_top+0xfffe0684>
80000074:	4c070793          	addi	x15,x14,1216
80000078:	0047a707          	flw	f14,4(x15)
8000007c:	00b7a227          	fsw	f11,4(x15)
80000080:	60f6f643          	fmadd.s	f12,f13,f15,f12
80000084:	68462787          	flw	f15,1668(x12) # 80000684 <_stack_top+0xfffe0688>
80000088:	80000637          	lui	x12,0x80000
8000008c:	800007b7          	lui	x15,0x80000
80000090:	60f5f7c3          	fmadd.s	f15,f11,f15,f12
80000094:	68862607          	flw	f12,1672(x12) # 80000688 <_stack_top+0xfffe068c>
80000098:	b0000637          	lui	x12,0xb0000
8000009c:	78c77743          	fmadd.s	f14,f14,f12,f15
800000a0:	68c7a787          	flw	f15,1676(x15) # 8000068c <_stack_top+0xfffe0690>
800000a4:	800007b7          	lui	x15,0x80000
800000a8:	6907a607          	flw	f12,1680(x15) # 80000690 <_stack_top+0xfffe0694>
800000ac:	00f777d3          	fadd.s	f15,f14,f15
800000b0:	10c7f7d3          	fmul.s	f15,f15,f12
800000b4:	c01797d3          	fcvt.wu.s	x15,f15,rtz
800000b8:	00f62023          	sw	x15,0(x12) # b0000000 <_stack_top+0x2ffe0004>
800000bc:	4cd72027          	fsw	f13,1216(x14)
800000c0:	4ce6a427          	fsw	f14,1224(x13)
800000c4:	00008067          	jalr	x0,0(x1)

800000c8 <interrupt_handler>:
800000c8:	ff010113          	addi	x2,x2,-16
800000cc:	800007b7          	lui	x15,0x80000
800000d0:	00100713          	addi	x14,x0,1
800000d4:	00812423          	sw	x8,8(x2)
800000d8:	4ce7ac23          	sw	x14,1240(x15) # 800004d8 <_stack_top+0xfffe04dc>
800000dc:	a0000437          	lui	x8,0xa0000
800000e0:	00912223          	sw	x9,4(x2)
800000e4:	00442483          	lw	x9,4(x8) # a0000004 <_stack_top+0x1ffe0008>
800000e8:	00112623          	sw	x1,12(x2)
800000ec:	00049c63          	bne	x9,x0,80000104 <interrupt_handler+0x3c>
800000f0:	00c12083          	lw	x1,12(x2)
800000f4:	00812403          	lw	x8,8(x2)
800000f8:	00412483          	lw	x9,4(x2)
800000fc:	01010113          	addi	x2,x2,16
80000100:	00008067          	jalr	x0,0(x1)
80000104:	f1dff0ef          	jal	x1,80000020 <adc_isr_floating_point>
80000108:	00c12083          	lw	x1,12(x2)
8000010c:	00942223          	sw	x9,4(x8)
80000110:	00812403          	lw	x8,8(x2)
80000114:	00412483          	lw	x9,4(x2)
80000118:	01010113          	addi	x2,x2,16
8000011c:	00008067          	jalr	x0,0(x1)

80000120 <avoid_saturation>:
80000120:	00b04e63          	blt	x0,x11,8000013c <avoid_saturation+0x1c>
80000124:	00058a63          	beq	x11,x0,80000138 <avoid_saturation+0x18>
80000128:	fff00793          	addi	x15,x0,-1
8000012c:	08f5c063          	blt	x11,x15,800001ac <avoid_saturation+0x8c>
80000130:	06f58a63          	beq	x11,x15,800001a4 <avoid_saturation+0x84>
80000134:	00008067          	jalr	x0,0(x1)
80000138:	fe0558e3          	bge	x10,x0,80000128 <avoid_saturation+0x8>
8000013c:	2a2a37b7          	lui	x15,0x2a2a3
80000140:	80000637          	lui	x12,0x80000
80000144:	a0a78793          	addi	x15,x15,-1526 # 2a2a2a0a <_boot-0x55d5d5f6>
80000148:	60860613          	addi	x12,x12,1544 # 80000608 <_stack_top+0xfffe060c>
8000014c:	40600537          	lui	x10,0x40600
80000150:	02000593          	addi	x11,x0,32
80000154:	00000713          	addi	x14,x0,0
80000158:	00e7d7b3          	srl	x15,x15,x14
8000015c:	0ff7f693          	andi	x13,x15,255
80000160:	0ff7f793          	andi	x15,x15,255
80000164:	00870713          	addi	x14,x14,8
80000168:	02078263          	beq	x15,x0,8000018c <avoid_saturation+0x6c>
8000016c:	00d52223          	sw	x13,4(x10) # 40600004 <_boot-0x3f9ffffc>
80000170:	02b70463          	beq	x14,x11,80000198 <avoid_saturation+0x78>
80000174:	00062783          	lw	x15,0(x12)
80000178:	00e7d7b3          	srl	x15,x15,x14
8000017c:	0ff7f693          	andi	x13,x15,255
80000180:	0ff7f793          	andi	x15,x15,255
80000184:	00870713          	addi	x14,x14,8
80000188:	fe0792e3          	bne	x15,x0,8000016c <avoid_saturation+0x4c>
8000018c:	80000537          	lui	x10,0x80000
80000190:	fff54513          	xori	x10,x10,-1
80000194:	00008067          	jalr	x0,0(x1)
80000198:	00460613          	addi	x12,x12,4
8000019c:	00062783          	lw	x15,0(x12)
800001a0:	fb5ff06f          	jal	x0,80000154 <avoid_saturation+0x34>
800001a4:	800007b7          	lui	x15,0x80000
800001a8:	f8f576e3          	bgeu	x10,x15,80000134 <avoid_saturation+0x14>
800001ac:	2a2a37b7          	lui	x15,0x2a2a3
800001b0:	80000637          	lui	x12,0x80000
800001b4:	a0a78793          	addi	x15,x15,-1526 # 2a2a2a0a <_boot-0x55d5d5f6>
800001b8:	62860613          	addi	x12,x12,1576 # 80000628 <_stack_top+0xfffe062c>
800001bc:	40600537          	lui	x10,0x40600
800001c0:	02000593          	addi	x11,x0,32
800001c4:	00000713          	addi	x14,x0,0
800001c8:	00e7d7b3          	srl	x15,x15,x14
800001cc:	0ff7f693          	andi	x13,x15,255
800001d0:	0ff7f793          	andi	x15,x15,255
800001d4:	00870713          	addi	x14,x14,8
800001d8:	02078263          	beq	x15,x0,800001fc <avoid_saturation+0xdc>
800001dc:	00d52223          	sw	x13,4(x10) # 40600004 <_boot-0x3f9ffffc>
800001e0:	02b70263          	beq	x14,x11,80000204 <avoid_saturation+0xe4>
800001e4:	00062783          	lw	x15,0(x12)
800001e8:	00e7d7b3          	srl	x15,x15,x14
800001ec:	0ff7f693          	andi	x13,x15,255
800001f0:	0ff7f793          	andi	x15,x15,255
800001f4:	00870713          	addi	x14,x14,8
800001f8:	fe0792e3          	bne	x15,x0,800001dc <avoid_saturation+0xbc>
800001fc:	80000537          	lui	x10,0x80000
80000200:	00008067          	jalr	x0,0(x1)
80000204:	00460613          	addi	x12,x12,4
80000208:	00062783          	lw	x15,0(x12)
8000020c:	fb9ff06f          	jal	x0,800001c4 <avoid_saturation+0xa4>

80000210 <adc_isr_fixed_point>:
80000210:	fe010113          	addi	x2,x2,-32
80000214:	a00007b7          	lui	x15,0xa0000
80000218:	01312623          	sw	x19,12(x2)
8000021c:	0007a983          	lw	x19,0(x15) # a0000000 <_stack_top+0x1ffe0004>
80000220:	00912a23          	sw	x9,20(x2)
80000224:	fffff4b7          	lui	x9,0xfffff
80000228:	c0048793          	addi	x15,x9,-1024 # ffffec00 <_stack_top+0x7ffdec04>
8000022c:	00f987b3          	add	x15,x19,x15
80000230:	00000593          	addi	x11,x0,0
80000234:	04b00513          	addi	x10,x0,75
80000238:	40000993          	addi	x19,x0,1024
8000023c:	00112e23          	sw	x1,28(x2)
80000240:	00812c23          	sw	x8,24(x2)
80000244:	01212823          	sw	x18,16(x2)
80000248:	01412423          	sw	x20,8(x2)
8000024c:	01512223          	sw	x21,4(x2)
80000250:	01612023          	sw	x22,0(x2)
80000254:	40f989b3          	sub	x19,x19,x15
80000258:	ec9ff0ef          	jal	x1,80000120 <avoid_saturation>
8000025c:	00050413          	addi	x8,x10,0 # 80000000 <_stack_top+0xfffe0004>
80000260:	0000f537          	lui	x10,0xf
80000264:	00000593          	addi	x11,x0,0
80000268:	59850513          	addi	x10,x10,1432 # f598 <_boot-0x7fff0a68>
8000026c:	eb5ff0ef          	jal	x1,80000120 <avoid_saturation>
80000270:	00008937          	lui	x18,0x8
80000274:	6cc90593          	addi	x11,x18,1740 # 86cc <_boot-0x7fff7934>
80000278:	00b405b3          	add	x11,x8,x11
8000027c:	033587b3          	mul	x15,x11,x19
80000280:	40048493          	addi	x9,x9,1024
80000284:	00940433          	add	x8,x8,x9
80000288:	40a40433          	sub	x8,x8,x10
8000028c:	80000a37          	lui	x20,0x80000
80000290:	80000b37          	lui	x22,0x80000
80000294:	4cca0a93          	addi	x21,x20,1228 # 800004cc <_stack_top+0xfffe04d0>
80000298:	acc90913          	addi	x18,x18,-1332
8000029c:	033595b3          	mulh	x11,x11,x19
800002a0:	20078513          	addi	x10,x15,512
800002a4:	00f537b3          	sltu	x15,x10,x15
800002a8:	00a55513          	srli	x10,x10,0xa
800002ac:	00b785b3          	add	x11,x15,x11
800002b0:	01659793          	slli	x15,x11,0x16
800002b4:	00a7e533          	or	x10,x15,x10
800002b8:	40a5d593          	srai	x11,x11,0xa
800002bc:	e65ff0ef          	jal	x1,80000120 <avoid_saturation>
800002c0:	4cca2583          	lw	x11,1228(x20)
800002c4:	4d4b2483          	lw	x9,1236(x22) # 800004d4 <_stack_top+0xfffe04d8>
800002c8:	02b407b3          	mul	x15,x8,x11
800002cc:	009504b3          	add	x9,x10,x9
800002d0:	02b41433          	mulh	x8,x8,x11
800002d4:	20078513          	addi	x10,x15,512
800002d8:	00f537b3          	sltu	x15,x10,x15
800002dc:	00a55513          	srli	x10,x10,0xa
800002e0:	00878433          	add	x8,x15,x8
800002e4:	01641793          	slli	x15,x8,0x16
800002e8:	40a45593          	srai	x11,x8,0xa
800002ec:	00a7e533          	or	x10,x15,x10
800002f0:	e31ff0ef          	jal	x1,80000120 <avoid_saturation>
800002f4:	004aa583          	lw	x11,4(x21)
800002f8:	00a484b3          	add	x9,x9,x10
800002fc:	032587b3          	mul	x15,x11,x18
80000300:	03259933          	mulh	x18,x11,x18
80000304:	20078513          	addi	x10,x15,512
80000308:	00f535b3          	sltu	x11,x10,x15
8000030c:	00a55513          	srli	x10,x10,0xa
80000310:	012585b3          	add	x11,x11,x18
80000314:	01659793          	slli	x15,x11,0x16
80000318:	00a7e533          	or	x10,x15,x10
8000031c:	40a5d593          	srai	x11,x11,0xa
80000320:	e01ff0ef          	jal	x1,80000120 <avoid_saturation>
80000324:	00a48533          	add	x10,x9,x10
80000328:	b00007b7          	lui	x15,0xb0000
8000032c:	00a7a023          	sw	x10,0(x15) # b0000000 <_stack_top+0x2ffe0004>
80000330:	4cca2783          	lw	x15,1228(x20)
80000334:	01c12083          	lw	x1,28(x2)
80000338:	01812403          	lw	x8,24(x2)
8000033c:	4d3a2623          	sw	x19,1228(x20)
80000340:	4cab2a23          	sw	x10,1236(x22)
80000344:	00faa223          	sw	x15,4(x21)
80000348:	01412483          	lw	x9,20(x2)
8000034c:	01012903          	lw	x18,16(x2)
80000350:	00c12983          	lw	x19,12(x2)
80000354:	00812a03          	lw	x20,8(x2)
80000358:	00412a83          	lw	x21,4(x2)
8000035c:	00012b03          	lw	x22,0(x2)
80000360:	02010113          	addi	x2,x2,32
80000364:	00008067          	jalr	x0,0(x1)

80000368 <fpAdd>:
80000368:	00b50533          	add	x10,x10,x11
8000036c:	00008067          	jalr	x0,0(x1)

80000370 <fpSub>:
80000370:	40b50533          	sub	x10,x10,x11
80000374:	00008067          	jalr	x0,0(x1)

80000378 <fpMlt>:
80000378:	02b507b3          	mul	x15,x10,x11
8000037c:	02b51733          	mulh	x14,x10,x11
80000380:	20078513          	addi	x10,x15,512
80000384:	00f535b3          	sltu	x11,x10,x15
80000388:	00a55513          	srli	x10,x10,0xa
8000038c:	00e585b3          	add	x11,x11,x14
80000390:	01659793          	slli	x15,x11,0x16
80000394:	00a7e533          	or	x10,x15,x10
80000398:	40a5d593          	srai	x11,x11,0xa
8000039c:	d85ff06f          	jal	x0,80000120 <avoid_saturation>

800003a0 <fpDiv>:
800003a0:	00a51513          	slli	x10,x10,0xa
800003a4:	02b54533          	div	x10,x10,x11
800003a8:	41f55593          	srai	x11,x10,0x1f
800003ac:	d75ff06f          	jal	x0,80000120 <avoid_saturation>

800003b0 <c_trap_handler>:
800003b0:	800007b7          	lui	x15,0x80000
800003b4:	00b78793          	addi	x15,x15,11 # 8000000b <_stack_top+0xfffe000f>
800003b8:	00f57533          	and	x10,x10,x15
800003bc:	06f50263          	beq	x10,x15,80000420 <c_trap_handler+0x70>
800003c0:	6e6b77b7          	lui	x15,0x6e6b7
800003c4:	80000637          	lui	x12,0x80000
800003c8:	e5578793          	addi	x15,x15,-427 # 6e6b6e55 <_boot-0x119491ab>
800003cc:	64860613          	addi	x12,x12,1608 # 80000648 <_stack_top+0xfffe064c>
800003d0:	40600537          	lui	x10,0x40600
800003d4:	02000593          	addi	x11,x0,32
800003d8:	00000713          	addi	x14,x0,0
800003dc:	00e7d7b3          	srl	x15,x15,x14
800003e0:	0ff7f693          	andi	x13,x15,255
800003e4:	0ff7f793          	andi	x15,x15,255
800003e8:	00870713          	addi	x14,x14,8
800003ec:	02078263          	beq	x15,x0,80000410 <c_trap_handler+0x60>
800003f0:	00d52223          	sw	x13,4(x10) # 40600004 <_boot-0x3f9ffffc>
800003f4:	02b70063          	beq	x14,x11,80000414 <c_trap_handler+0x64>
800003f8:	00062783          	lw	x15,0(x12)
800003fc:	00e7d7b3          	srl	x15,x15,x14
80000400:	0ff7f693          	andi	x13,x15,255
80000404:	0ff7f793          	andi	x15,x15,255
80000408:	00870713          	addi	x14,x14,8
8000040c:	fe0792e3          	bne	x15,x0,800003f0 <c_trap_handler+0x40>
80000410:	00008067          	jalr	x0,0(x1)
80000414:	00460613          	addi	x12,x12,4
80000418:	00062783          	lw	x15,0(x12)
8000041c:	fbdff06f          	jal	x0,800003d8 <c_trap_handler+0x28>
80000420:	ca9ff06f          	jal	x0,800000c8 <interrupt_handler>

80000424 <__trap_handler>:
80000424:	fc010113          	addi	x2,x2,-64
80000428:	00112023          	sw	x1,0(x2)
8000042c:	00a12223          	sw	x10,4(x2)
80000430:	00b12423          	sw	x11,8(x2)
80000434:	00c12623          	sw	x12,12(x2)
80000438:	00d12a23          	sw	x13,20(x2)
8000043c:	00e12a23          	sw	x14,20(x2)
80000440:	00f12c23          	sw	x15,24(x2)
80000444:	01012e23          	sw	x16,28(x2)
80000448:	03112023          	sw	x17,32(x2)
8000044c:	02512223          	sw	x5,36(x2)
80000450:	02612423          	sw	x6,40(x2)
80000454:	02712623          	sw	x7,44(x2)
80000458:	03c12823          	sw	x28,48(x2)
8000045c:	03d12a23          	sw	x29,52(x2)
80000460:	03e12c23          	sw	x30,56(x2)
80000464:	03f12e23          	sw	x31,60(x2)
80000468:	34202573          	csrrs	x10,mcause,x0
8000046c:	344025f3          	csrrs	x11,mip,x0
80000470:	30402673          	csrrs	x12,mie,x0
80000474:	f3dff0ef          	jal	x1,800003b0 <c_trap_handler>
80000478:	00012083          	lw	x1,0(x2)
8000047c:	00412503          	lw	x10,4(x2)
80000480:	00812583          	lw	x11,8(x2)
80000484:	00c12603          	lw	x12,12(x2)
80000488:	01412683          	lw	x13,20(x2)
8000048c:	01412703          	lw	x14,20(x2)
80000490:	01812783          	lw	x15,24(x2)
80000494:	01c12803          	lw	x16,28(x2)
80000498:	02012883          	lw	x17,32(x2)
8000049c:	02412283          	lw	x5,36(x2)
800004a0:	02812303          	lw	x6,40(x2)
800004a4:	02c12383          	lw	x7,44(x2)
800004a8:	03012e03          	lw	x28,48(x2)
800004ac:	03412e83          	lw	x29,52(x2)
800004b0:	03812f03          	lw	x30,56(x2)
800004b4:	03c12f83          	lw	x31,60(x2)
800004b8:	04010113          	addi	x2,x2,64
800004bc:	30200073          	mret

800004c0 <_edata>:
	...

800004c8 <last_control.3033>:
800004c8:	00000000                                ....

800004cc <last_errors.3019>:
	...

800004d4 <last_control.3020>:
800004d4:	00000000                                ....

800004d8 <irq_received>:
800004d8:	00000000                                ....

Disassembly of section .text.startup:

800004dc <main>:
800004dc:	622037b7          	lui	x15,0x62203
800004e0:	80000737          	lui	x14,0x80000
800004e4:	d2d78793          	addi	x15,x15,-723 # 62202d2d <_boot-0x1ddfd2d3>
800004e8:	5d470713          	addi	x14,x14,1492 # 800005d4 <_stack_top+0xfffe05d8>
800004ec:	406005b7          	lui	x11,0x40600
800004f0:	02000613          	addi	x12,x0,32
800004f4:	00000693          	addi	x13,x0,0
800004f8:	00d7d7b3          	srl	x15,x15,x13
800004fc:	0ff7f513          	andi	x10,x15,255
80000500:	0ff7f793          	andi	x15,x15,255
80000504:	00868693          	addi	x13,x13,8
80000508:	02078263          	beq	x15,x0,8000052c <main+0x50>
8000050c:	00a5a223          	sw	x10,4(x11) # 40600004 <_boot-0x3f9ffffc>
80000510:	0ac68663          	beq	x13,x12,800005bc <main+0xe0>
80000514:	00072783          	lw	x15,0(x14)
80000518:	00d7d7b3          	srl	x15,x15,x13
8000051c:	0ff7f513          	andi	x10,x15,255
80000520:	0ff7f793          	andi	x15,x15,255
80000524:	00868693          	addi	x13,x13,8
80000528:	fe0792e3          	bne	x15,x0,8000050c <main+0x30>
8000052c:	00800293          	addi	x5,x0,8
80000530:	3002a073          	csrrs	x0,mstatus,x5
80000534:	000012b7          	lui	x5,0x1
80000538:	80028293          	addi	x5,x5,-2048 # 800 <_boot-0x7ffff800>
8000053c:	3042a073          	csrrs	x0,mie,x5
80000540:	652037b7          	lui	x15,0x65203
80000544:	80000737          	lui	x14,0x80000
80000548:	d2d78793          	addi	x15,x15,-723 # 65202d2d <_boot-0x1adfd2d3>
8000054c:	5ec70713          	addi	x14,x14,1516 # 800005ec <_stack_top+0xfffe05f0>
80000550:	406005b7          	lui	x11,0x40600
80000554:	02000613          	addi	x12,x0,32
80000558:	00000693          	addi	x13,x0,0
8000055c:	00d7d7b3          	srl	x15,x15,x13
80000560:	0ff7f513          	andi	x10,x15,255
80000564:	0ff7f793          	andi	x15,x15,255
80000568:	00868693          	addi	x13,x13,8
8000056c:	02078263          	beq	x15,x0,80000590 <main+0xb4>
80000570:	00a5a223          	sw	x10,4(x11) # 40600004 <_boot-0x3f9ffffc>
80000574:	04c68a63          	beq	x13,x12,800005c8 <main+0xec>
80000578:	00072783          	lw	x15,0(x14)
8000057c:	00d7d7b3          	srl	x15,x15,x13
80000580:	0ff7f513          	andi	x10,x15,255
80000584:	0ff7f793          	andi	x15,x15,255
80000588:	00868693          	addi	x13,x13,8
8000058c:	fe0792e3          	bne	x15,x0,80000570 <main+0x94>
80000590:	a0000637          	lui	x12,0xa0000
80000594:	80000737          	lui	x14,0x80000
80000598:	00860613          	addi	x12,x12,8 # a0000008 <_stack_top+0x1ffe000c>
8000059c:	00100693          	addi	x13,x0,1
800005a0:	b00005b7          	lui	x11,0xb0000
800005a4:	00d62023          	sw	x13,0(x12)
800005a8:	00d5a423          	sw	x13,8(x11) # b0000008 <_stack_top+0x2ffe000c>
800005ac:	4c072c23          	sw	x0,1240(x14) # 800004d8 <_stack_top+0xfffe04dc>
800005b0:	4d872783          	lw	x15,1240(x14)
800005b4:	fe078ee3          	beq	x15,x0,800005b0 <main+0xd4>
800005b8:	fedff06f          	jal	x0,800005a4 <main+0xc8>
800005bc:	00470713          	addi	x14,x14,4
800005c0:	00072783          	lw	x15,0(x14)
800005c4:	f31ff06f          	jal	x0,800004f4 <main+0x18>
800005c8:	00470713          	addi	x14,x14,4
800005cc:	00072783          	lw	x15,0(x14)
800005d0:	f89ff06f          	jal	x0,80000558 <main+0x7c>
